target datalayout = "e-m:e-p270:32:32-p271:32:32-p272:64:64-i64:64-i128:128-f80:128-n8:16:32:64-S128"
target triple = "x86_64-pc-linux-gnu"

; Function Attrs: nounwind uwtable
define internal void @extend_frame_lowbd(ptr noundef %0, i32 noundef %1, i32 noundef %2, i32 noundef %3, i32 noundef %4, i32 noundef %5) #0 {
  %7 = alloca ptr, align 8
  %8 = alloca i32, align 4
  %9 = alloca i32, align 4
  %10 = alloca i32, align 4
  %11 = alloca i32, align 4
  %12 = alloca i32, align 4
  %13 = alloca ptr, align 8
  %14 = alloca i32, align 4
  store ptr %0, ptr %7, align 8
  store i32 %1, ptr %8, align 4
  store i32 %2, ptr %9, align 4
  store i32 %3, ptr %10, align 4
  store i32 %4, ptr %11, align 4
  store i32 %5, ptr %12, align 4
  store i32 0, ptr %14, align 4
  br label %15

15:                                               ; preds = %52, %6
  %16 = load i32, ptr %14, align 4
  %17 = load i32, ptr %9, align 4
  %18 = icmp slt i32 %16, %17
  br i1 %18, label %19, label %55

19:                                               ; preds = %15
  %20 = load ptr, ptr %7, align 8
  %21 = load i32, ptr %14, align 4
  %22 = load i32, ptr %10, align 4
  %23 = mul nsw i32 %21, %22
  %24 = sext i32 %23 to i64
  %25 = getelementptr inbounds i8, ptr %20, i64 %24
  store ptr %25, ptr %13, align 8
  %26 = load ptr, ptr %13, align 8
  %27 = load i32, ptr %11, align 4
  %28 = sext i32 %27 to i64
  %29 = sub i64 0, %28
  %30 = getelementptr inbounds i8, ptr %26, i64 %29
  %31 = load ptr, ptr %13, align 8
  %32 = getelementptr inbounds i8, ptr %31, i64 0
  %33 = load i8, ptr %32, align 1
  %34 = zext i8 %33 to i32
  %35 = trunc i32 %34 to i8
  %36 = load i32, ptr %11, align 4
  %37 = sext i32 %36 to i64
  call void @llvm.memset.p0.i64(ptr align 1 %30, i8 %35, i64 %37, i1 false)
  %38 = load ptr, ptr %13, align 8
  %39 = load i32, ptr %8, align 4
  %40 = sext i32 %39 to i64
  %41 = getelementptr inbounds i8, ptr %38, i64 %40
  %42 = load ptr, ptr %13, align 8
  %43 = load i32, ptr %8, align 4
  %44 = sub nsw i32 %43, 1
  %45 = sext i32 %44 to i64
  %46 = getelementptr inbounds i8, ptr %42, i64 %45
  %47 = load i8, ptr %46, align 1
  %48 = zext i8 %47 to i32
  %49 = trunc i32 %48 to i8
  %50 = load i32, ptr %11, align 4
  %51 = sext i32 %50 to i64
  call void @llvm.memset.p0.i64(ptr align 1 %41, i8 %49, i64 %51, i1 false)
  br label %52

52:                                               ; preds = %19
  %53 = load i32, ptr %14, align 4
  %54 = add nsw i32 %53, 1
  store i32 %54, ptr %14, align 4
  br label %15, !llvm.loop !10

55:                                               ; preds = %15
  %56 = load ptr, ptr %7, align 8
  %57 = load i32, ptr %11, align 4
  %58 = sext i32 %57 to i64
  %59 = sub i64 0, %58
  %60 = getelementptr inbounds i8, ptr %56, i64 %59
  store ptr %60, ptr %13, align 8
  %61 = load i32, ptr %12, align 4
  %62 = sub nsw i32 0, %61
  store i32 %62, ptr %14, align 4
  br label %63

63:                                               ; preds = %79, %55
  %64 = load i32, ptr %14, align 4
  %65 = icmp slt i32 %64, 0
  br i1 %65, label %66, label %82

66:                                               ; preds = %63
  %67 = load ptr, ptr %13, align 8
  %68 = load i32, ptr %14, align 4
  %69 = load i32, ptr %10, align 4
  %70 = mul nsw i32 %68, %69
  %71 = sext i32 %70 to i64
  %72 = getelementptr inbounds i8, ptr %67, i64 %71
  %73 = load ptr, ptr %13, align 8
  %74 = load i32, ptr %8, align 4
  %75 = load i32, ptr %11, align 4
  %76 = mul nsw i32 2, %75
  %77 = add nsw i32 %74, %76
  %78 = sext i32 %77 to i64
  call void @llvm.memcpy.p0.p0.i64(ptr align 1 %72, ptr align 1 %73, i64 %78, i1 false)
  br label %79

79:                                               ; preds = %66
  %80 = load i32, ptr %14, align 4
  %81 = add nsw i32 %80, 1
  store i32 %81, ptr %14, align 4
  br label %63, !llvm.loop !11

82:                                               ; preds = %63
  %83 = load i32, ptr %9, align 4
  store i32 %83, ptr %14, align 4
  br label %84

84:                                               ; preds = %109, %82
  %85 = load i32, ptr %14, align 4
  %86 = load i32, ptr %9, align 4
  %87 = load i32, ptr %12, align 4
  %88 = add nsw i32 %86, %87
  %89 = icmp slt i32 %85, %88
  br i1 %89, label %90, label %112

90:                                               ; preds = %84
  %91 = load ptr, ptr %13, align 8
  %92 = load i32, ptr %14, align 4
  %93 = load i32, ptr %10, align 4
  %94 = mul nsw i32 %92, %93
  %95 = sext i32 %94 to i64
  %96 = getelementptr inbounds i8, ptr %91, i64 %95
  %97 = load ptr, ptr %13, align 8
  %98 = load i32, ptr %9, align 4
  %99 = sub nsw i32 %98, 1
  %100 = load i32, ptr %10, align 4
  %101 = mul nsw i32 %99, %100
  %102 = sext i32 %101 to i64
  %103 = getelementptr inbounds i8, ptr %97, i64 %102
  %104 = load i32, ptr %8, align 4
  %105 = load i32, ptr %11, align 4
  %106 = mul nsw i32 2, %105
  %107 = add nsw i32 %104, %106
  %108 = sext i32 %107 to i64
  call void @llvm.memcpy.p0.p0.i64(ptr align 1 %96, ptr align 1 %103, i64 %108, i1 false)
  br label %109

109:                                              ; preds = %90
  %110 = load i32, ptr %14, align 4
  %111 = add nsw i32 %110, 1
  store i32 %111, ptr %14, align 4
  br label %84, !llvm.loop !12

112:                                              ; preds = %84
  ret void
}

; Function Attrs: nounwind uwtable
define internal void @extend_frame_highbd(ptr noundef %0, i32 noundef %1, i32 noundef %2, i32 noundef %3, i32 noundef %4, i32 noundef %5) #0 {
  %7 = alloca ptr, align 8
  %8 = alloca i32, align 4
  %9 = alloca i32, align 4
  %10 = alloca i32, align 4
  %11 = alloca i32, align 4
  %12 = alloca i32, align 4
  %13 = alloca ptr, align 8
  %14 = alloca i32, align 4
  %15 = alloca i32, align 4
  store ptr %0, ptr %7, align 8
  store i32 %1, ptr %8, align 4
  store i32 %2, ptr %9, align 4
  store i32 %3, ptr %10, align 4
  store i32 %4, ptr %11, align 4
  store i32 %5, ptr %12, align 4
  store i32 0, ptr %14, align 4
  br label %16

16:                                               ; preds = %66, %6
  %17 = load i32, ptr %14, align 4
  %18 = load i32, ptr %9, align 4
  %19 = icmp slt i32 %17, %18
  br i1 %19, label %20, label %69

20:                                               ; preds = %16
  %21 = load ptr, ptr %7, align 8
  %22 = load i32, ptr %14, align 4
  %23 = load i32, ptr %10, align 4
  %24 = mul nsw i32 %22, %23
  %25 = sext i32 %24 to i64
  %26 = getelementptr inbounds i16, ptr %21, i64 %25
  store ptr %26, ptr %13, align 8
  %27 = load i32, ptr %11, align 4
  %28 = sub nsw i32 0, %27
  store i32 %28, ptr %15, align 4
  br label %29

29:                                               ; preds = %40, %20
  %30 = load i32, ptr %15, align 4
  %31 = icmp slt i32 %30, 0
  br i1 %31, label %32, label %43

32:                                               ; preds = %29
  %33 = load ptr, ptr %13, align 8
  %34 = getelementptr inbounds i16, ptr %33, i64 0
  %35 = load i16, ptr %34, align 2
  %36 = load ptr, ptr %13, align 8
  %37 = load i32, ptr %15, align 4
  %38 = sext i32 %37 to i64
  %39 = getelementptr inbounds i16, ptr %36, i64 %38
  store i16 %35, ptr %39, align 2
  br label %40

40:                                               ; preds = %32
  %41 = load i32, ptr %15, align 4
  %42 = add nsw i32 %41, 1
  store i32 %42, ptr %15, align 4
  br label %29, !llvm.loop !4

43:                                               ; preds = %29
  %44 = load i32, ptr %8, align 4
  store i32 %44, ptr %15, align 4
  br label %45

45:                                               ; preds = %62, %43
  %46 = load i32, ptr %15, align 4
  %47 = load i32, ptr %8, align 4
  %48 = load i32, ptr %11, align 4
  %49 = add nsw i32 %47, %48
  %50 = icmp slt i32 %46, %49
  br i1 %50, label %51, label %65

51:                                               ; preds = %45
  %52 = load ptr, ptr %13, align 8
  %53 = load i32, ptr %8, align 4
  %54 = sub nsw i32 %53, 1
  %55 = sext i32 %54 to i64
  %56 = getelementptr inbounds i16, ptr %52, i64 %55
  %57 = load i16, ptr %56, align 2
  %58 = load ptr, ptr %13, align 8
  %59 = load i32, ptr %15, align 4
  %60 = sext i32 %59 to i64
  %61 = getelementptr inbounds i16, ptr %58, i64 %60
  store i16 %57, ptr %61, align 2
  br label %62

62:                                               ; preds = %51
  %63 = load i32, ptr %15, align 4
  %64 = add nsw i32 %63, 1
  store i32 %64, ptr %15, align 4
  br label %45, !llvm.loop !6

65:                                               ; preds = %45
  br label %66

66:                                               ; preds = %65
  %67 = load i32, ptr %14, align 4
  %68 = add nsw i32 %67, 1
  store i32 %68, ptr %14, align 4
  br label %16, !llvm.loop !7

69:                                               ; preds = %16
  %70 = load ptr, ptr %7, align 8
  %71 = load i32, ptr %11, align 4
  %72 = sext i32 %71 to i64
  %73 = sub i64 0, %72
  %74 = getelementptr inbounds i16, ptr %70, i64 %73
  store ptr %74, ptr %13, align 8
  %75 = load i32, ptr %12, align 4
  %76 = sub nsw i32 0, %75
  store i32 %76, ptr %14, align 4
  br label %77

77:                                               ; preds = %94, %69
  %78 = load i32, ptr %14, align 4
  %79 = icmp slt i32 %78, 0
  br i1 %79, label %80, label %97

80:                                               ; preds = %77
  %81 = load ptr, ptr %13, align 8
  %82 = load i32, ptr %14, align 4
  %83 = load i32, ptr %10, align 4
  %84 = mul nsw i32 %82, %83
  %85 = sext i32 %84 to i64
  %86 = getelementptr inbounds i16, ptr %81, i64 %85
  %87 = load ptr, ptr %13, align 8
  %88 = load i32, ptr %8, align 4
  %89 = load i32, ptr %11, align 4
  %90 = mul nsw i32 2, %89
  %91 = add nsw i32 %88, %90
  %92 = sext i32 %91 to i64
  %93 = mul i64 %92, 2
  call void @llvm.memcpy.p0.p0.i64(ptr align 2 %86, ptr align 2 %87, i64 %93, i1 false)
  br label %94

94:                                               ; preds = %80
  %95 = load i32, ptr %14, align 4
  %96 = add nsw i32 %95, 1
  store i32 %96, ptr %14, align 4
  br label %77, !llvm.loop !8

97:                                               ; preds = %77
  %98 = load i32, ptr %9, align 4
  store i32 %98, ptr %14, align 4
  br label %99

99:                                               ; preds = %125, %97
  %100 = load i32, ptr %14, align 4
  %101 = load i32, ptr %9, align 4
  %102 = load i32, ptr %12, align 4
  %103 = add nsw i32 %101, %102
  %104 = icmp slt i32 %100, %103
  br i1 %104, label %105, label %128

105:                                              ; preds = %99
  %106 = load ptr, ptr %13, align 8
  %107 = load i32, ptr %14, align 4
  %108 = load i32, ptr %10, align 4
  %109 = mul nsw i32 %107, %108
  %110 = sext i32 %109 to i64
  %111 = getelementptr inbounds i16, ptr %106, i64 %110
  %112 = load ptr, ptr %13, align 8
  %113 = load i32, ptr %9, align 4
  %114 = sub nsw i32 %113, 1
  %115 = load i32, ptr %10, align 4
  %116 = mul nsw i32 %114, %115
  %117 = sext i32 %116 to i64
  %118 = getelementptr inbounds i16, ptr %112, i64 %117
  %119 = load i32, ptr %8, align 4
  %120 = load i32, ptr %11, align 4
  %121 = mul nsw i32 2, %120
  %122 = add nsw i32 %119, %121
  %123 = sext i32 %122 to i64
  %124 = mul i64 %123, 2
  call void @llvm.memcpy.p0.p0.i64(ptr align 2 %111, ptr align 2 %118, i64 %124, i1 false)
  br label %125

125:                                              ; preds = %105
  %126 = load i32, ptr %14, align 4
  %127 = add nsw i32 %126, 1
  store i32 %127, ptr %14, align 4
  br label %99, !llvm.loop !9

128:                                              ; preds = %99
  ret void
}

; Function Attrs: nounwind uwtable
define hidden void @av1_extend_frame(ptr noundef %0, i32 noundef %1, i32 noundef %2, i32 noundef %3, i32 noundef %4, i32 noundef %5, i32 noundef %6) #0 {
  %8 = alloca ptr, align 8
  %9 = alloca i32, align 4
  %10 = alloca i32, align 4
  %11 = alloca i32, align 4
  %12 = alloca i32, align 4
  %13 = alloca i32, align 4
  %14 = alloca i32, align 4
  store ptr %0, ptr %8, align 8
  store i32 %1, ptr %9, align 4
  store i32 %2, ptr %10, align 4
  store i32 %3, ptr %11, align 4
  store i32 %4, ptr %12, align 4
  store i32 %5, ptr %13, align 4
  store i32 %6, ptr %14, align 4
  %15 = load i32, ptr %14, align 4
  %16 = icmp ne i32 %15, 0
  br i1 %16, label %17, label %27

17:                                               ; preds = %7
  %18 = load ptr, ptr %8, align 8
  %19 = ptrtoint ptr %18 to i64
  %20 = shl i64 %19, 1
  %21 = inttoptr i64 %20 to ptr
  %22 = load i32, ptr %9, align 4
  %23 = load i32, ptr %10, align 4
  %24 = load i32, ptr %11, align 4
  %25 = load i32, ptr %12, align 4
  %26 = load i32, ptr %13, align 4
  call void @extend_frame_highbd(ptr noundef %21, i32 noundef %22, i32 noundef %23, i32 noundef %24, i32 noundef %25, i32 noundef %26)
  br label %34

27:                                               ; preds = %7
  %28 = load ptr, ptr %8, align 8
  %29 = load i32, ptr %9, align 4
  %30 = load i32, ptr %10, align 4
  %31 = load i32, ptr %11, align 4
  %32 = load i32, ptr %12, align 4
  %33 = load i32, ptr %13, align 4
  call void @extend_frame_lowbd(ptr noundef %28, i32 noundef %29, i32 noundef %30, i32 noundef %31, i32 noundef %32, i32 noundef %33)
  br label %34

34:                                               ; preds = %27, %17
  ret void
}