; Function Attrs: nofree norecurse nosync nounwind memory(readwrite, inaccessiblemem: none) uwtable
define hidden void @av1_extend_frame(ptr noundef %0, i32 noundef %1, i32 noundef %2, i32 noundef %3, i32 noundef %4, i32 noundef %5, i32 noundef %6) local_unnamed_addr #4 {
  %.not = icmp eq i32 %6, 0
  br i1 %.not, label %54, label %8

8:                                                ; preds = %7
  %9 = ptrtoint ptr %0 to i64
  %10 = shl i64 %9, 1
  %11 = inttoptr i64 %10 to ptr
  %12 = icmp sgt i32 %2, 0
  br i1 %12, label %.lr.ph53.i, label %._crit_edge54.i

.lr.ph53.i:                                       ; preds = %8
  %13 = icmp sgt i32 %4, 0
  %14 = sext i32 %1 to i64
  br i1 %13, label %.lr.ph.us.us.preheader.i, label %._crit_edge54.i

.lr.ph.us.us.preheader.i:                         ; preds = %.lr.ph53.i
  %15 = add i32 %4, %1
  %16 = sub nsw i32 0, %4
  %17 = sext i32 %16 to i64
  %18 = sext i32 %15 to i64
  %19 = sext i32 %3 to i64
  %wide.trip.count94.i = zext nneg i32 %2 to i64
  br label %.lr.ph.us.us.i

.lr.ph.us.us.i:                                   ; preds = %._crit_edge.us.us.i, %.lr.ph.us.us.preheader.i
  %indvars.iv91.i = phi i64 [ 0, %.lr.ph.us.us.preheader.i ], [ %indvars.iv.next92.i, %._crit_edge.us.us.i ]
  %20 = mul nsw i64 %indvars.iv91.i, %19
  %21 = getelementptr inbounds i16, ptr %11, i64 %20
  %.pre.i = load i16, ptr %21, align 2
  br label %25

22:                                               ; preds = %..preheader47_crit_edge.us.us.i, %22
  %indvars.iv88.i = phi i64 [ %14, %..preheader47_crit_edge.us.us.i ], [ %indvars.iv.next89.i, %22 ]
  %23 = getelementptr inbounds i16, ptr %21, i64 %indvars.iv88.i
  store i16 %.pre104.i, ptr %23, align 2
  %indvars.iv.next89.i = add nsw i64 %indvars.iv88.i, 1
  %24 = icmp slt i64 %indvars.iv.next89.i, %18
  br i1 %24, label %22, label %._crit_edge.us.us.i, !llvm.loop !4

25:                                               ; preds = %25, %.lr.ph.us.us.i
  %indvars.iv83.i = phi i64 [ %indvars.iv.next84.i, %25 ], [ %17, %.lr.ph.us.us.i ]
  %26 = getelementptr inbounds i16, ptr %21, i64 %indvars.iv83.i
  store i16 %.pre.i, ptr %26, align 2
  %indvars.iv.next84.i = add nsw i64 %indvars.iv83.i, 1
  %27 = and i64 %indvars.iv.next84.i, 4294967295
  %exitcond87.not.i = icmp eq i64 %27, 0
  br i1 %exitcond87.not.i, label %..preheader47_crit_edge.us.us.i, label %25, !llvm.loop !6

..preheader47_crit_edge.us.us.i:                  ; preds = %25
  %invariant.gep.us.us.i = getelementptr i8, ptr %21, i64 -2
  %gep.us.us.i = getelementptr i16, ptr %invariant.gep.us.us.i, i64 %14
  %.pre104.i = load i16, ptr %gep.us.us.i, align 2
  br label %22

._crit_edge.us.us.i:                              ; preds = %22
  %indvars.iv.next92.i = add nuw nsw i64 %indvars.iv91.i, 1
  %exitcond95.not.i = icmp eq i64 %indvars.iv.next92.i, %wide.trip.count94.i
  br i1 %exitcond95.not.i, label %._crit_edge54.i, label %.lr.ph.us.us.i, !llvm.loop !7

._crit_edge54.i:                                  ; preds = %._crit_edge.us.us.i, %.lr.ph53.i, %8
  %28 = sext i32 %4 to i64
  %29 = sub nsw i64 0, %28
  %30 = getelementptr inbounds i16, ptr %11, i64 %29
  %31 = icmp sgt i32 %5, 0
  br i1 %31, label %.lr.ph.i, label %extend_frame_highbd.exit

.lr.ph.i:                                         ; preds = %._crit_edge54.i
  %32 = sub nsw i32 0, %5
  %33 = shl nsw i32 %4, 1
  %34 = add nsw i32 %33, %1
  %35 = sext i32 %34 to i64
  %36 = shl nsw i64 %35, 1
  %37 = sext i32 %32 to i64
  %38 = sext i32 %3 to i64
  br label %46

.preheader.i:                                     ; preds = %46
  %39 = add nsw i32 %5, %2
  %40 = add nsw i32 %2, -1
  %41 = mul nsw i32 %40, %3
  %42 = sext i32 %41 to i64
  %43 = getelementptr inbounds i16, ptr %30, i64 %42
  %44 = sext i32 %2 to i64
  %45 = sext i32 %39 to i64
  br label %50

46:                                               ; preds = %46, %.lr.ph.i
  %indvars.iv96.i = phi i64 [ %37, %.lr.ph.i ], [ %indvars.iv.next97.i, %46 ]
  %47 = mul nsw i64 %indvars.iv96.i, %38
  %48 = getelementptr inbounds i16, ptr %30, i64 %47
  tail call void @llvm.memcpy.p0.p0.i64(ptr align 2 %48, ptr align 2 %30, i64 %36, i1 false)
  %indvars.iv.next97.i = add nsw i64 %indvars.iv96.i, 1
  %49 = and i64 %indvars.iv.next97.i, 4294967295
  %exitcond100.not.i = icmp eq i64 %49, 0
  br i1 %exitcond100.not.i, label %.preheader.i, label %46, !llvm.loop !8

50:                                               ; preds = %50, %.preheader.i
  %indvars.iv101.i = phi i64 [ %44, %.preheader.i ], [ %indvars.iv.next102.i, %50 ]
  %51 = mul nsw i64 %indvars.iv101.i, %38
  %52 = getelementptr inbounds i16, ptr %30, i64 %51
  tail call void @llvm.memcpy.p0.p0.i64(ptr align 2 %52, ptr align 2 %43, i64 %36, i1 false)
  %indvars.iv.next102.i = add nsw i64 %indvars.iv101.i, 1
  %53 = icmp slt i64 %indvars.iv.next102.i, %45
  br i1 %53, label %50, label %extend_frame_highbd.exit, !llvm.loop !9

54:                                               ; preds = %7
  %55 = icmp sgt i32 %2, 0
  %56 = sext i32 %4 to i64
  %57 = sub nsw i64 0, %56
  br i1 %55, label %.lr.ph.i13, label %._crit_edge.i

.lr.ph.i13:                                       ; preds = %54
  %58 = sext i32 %1 to i64
  %59 = sext i32 %3 to i64
  %wide.trip.count.i = zext nneg i32 %2 to i64
  br label %60

60:                                               ; preds = %60, %.lr.ph.i13
  %indvars.iv.i = phi i64 [ 0, %.lr.ph.i13 ], [ %indvars.iv.next.i, %60 ]
  %61 = mul nsw i64 %indvars.iv.i, %59
  %62 = getelementptr inbounds i8, ptr %0, i64 %61
  %63 = getelementptr inbounds i8, ptr %62, i64 %57
  %64 = load i8, ptr %62, align 1
  tail call void @llvm.memset.p0.i64(ptr nonnull align 1 %63, i8 %64, i64 %56, i1 false)
  %65 = getelementptr i8, ptr %62, i64 %58
  %66 = getelementptr i8, ptr %65, i64 -1
  %67 = load i8, ptr %66, align 1
  tail call void @llvm.memset.p0.i64(ptr nonnull align 1 %65, i8 %67, i64 %56, i1 false)
  %indvars.iv.next.i = add nuw nsw i64 %indvars.iv.i, 1
  %exitcond.not.i = icmp eq i64 %indvars.iv.next.i, %wide.trip.count.i
  br i1 %exitcond.not.i, label %._crit_edge.i, label %60, !llvm.loop !10

._crit_edge.i:                                    ; preds = %60, %54
  %68 = getelementptr inbounds i8, ptr %0, i64 %57
  %69 = icmp sgt i32 %5, 0
  br i1 %69, label %.lr.ph42.i, label %extend_frame_highbd.exit

.lr.ph42.i:                                       ; preds = %._crit_edge.i
  %70 = sub nsw i32 0, %5
  %71 = shl nsw i32 %4, 1
  %72 = add nsw i32 %71, %1
  %73 = sext i32 %72 to i64
  %74 = sext i32 %70 to i64
  %75 = sext i32 %3 to i64
  br label %83

.preheader.i12:                                   ; preds = %83
  %76 = add nsw i32 %5, %2
  %77 = add nsw i32 %2, -1
  %78 = mul nsw i32 %77, %3
  %79 = sext i32 %78 to i64
  %80 = getelementptr inbounds i8, ptr %68, i64 %79
  %81 = sext i32 %2 to i64
  %82 = sext i32 %76 to i64
  br label %87

83:                                               ; preds = %83, %.lr.ph42.i
  %indvars.iv47.i = phi i64 [ %74, %.lr.ph42.i ], [ %indvars.iv.next48.i, %83 ]
  %84 = mul nsw i64 %indvars.iv47.i, %75
  %85 = getelementptr inbounds i8, ptr %68, i64 %84
  tail call void @llvm.memcpy.p0.p0.i64(ptr align 1 %85, ptr align 1 %68, i64 %73, i1 false)
  %indvars.iv.next48.i = add nsw i64 %indvars.iv47.i, 1
  %86 = and i64 %indvars.iv.next48.i, 4294967295
  %exitcond50.not.i = icmp eq i64 %86, 0
  br i1 %exitcond50.not.i, label %.preheader.i12, label %83, !llvm.loop !11

87:                                               ; preds = %87, %.preheader.i12
  %indvars.iv51.i = phi i64 [ %81, %.preheader.i12 ], [ %indvars.iv.next52.i, %87 ]
  %88 = mul nsw i64 %indvars.iv51.i, %75
  %89 = getelementptr inbounds i8, ptr %68, i64 %88
  tail call void @llvm.memcpy.p0.p0.i64(ptr align 1 %89, ptr align 1 %80, i64 %73, i1 false)
  %indvars.iv.next52.i = add nsw i64 %indvars.iv51.i, 1
  %90 = icmp slt i64 %indvars.iv.next52.i, %82
  br i1 %90, label %87, label %extend_frame_highbd.exit, !llvm.loop !12

extend_frame_highbd.exit:                         ; preds = %50, %87, %._crit_edge.i, %._crit_edge54.i
  ret void
}